; Function Attrs: mustprogress nounwind uwtable
define internal void @_ZN6crypto12_GLOBAL__N_116SecureHashSHA256D2Ev(ptr noundef nonnull align 8 dereferenceable(120) initializes((0, 8)) %0) unnamed_addr #8 align 2 personality ptr @__gxx_personality_v0 {
  store ptr getelementptr inbounds nuw inrange(-16, 48) (i8, ptr @_ZTVN6crypto12_GLOBAL__N_116SecureHashSHA256E, i64 16), ptr %0, align 8, !tbaa !6
  %2 = getelementptr inbounds nuw i8, ptr %0, i64 8
  invoke void @OPENSSL_cleanse(ptr noundef nonnull %2, i64 noundef 112)
          to label %3 unwind label %4

3:                                                ; preds = %1
  ret void

4:                                                ; preds = %1
  %5 = landingpad { ptr, i32 }
          catch ptr null
  %6 = extractvalue { ptr, i32 } %5, 0
  tail call void @__clang_call_terminate(ptr %6) #14
  unreachable
}